; Function Attrs: mustprogress uwtable
define void @_ZN19OpenColorIO_v2_4dev19ColorSpaceTransform6setSrcEPKc(ptr nocapture noundef nonnull readonly align 8 dereferenceable(16) %this, ptr noundef %src) local_unnamed_addr #0 align 2 {
entry:
  %tobool.not = icmp eq ptr %src, null
  %cond = select i1 %tobool.not, ptr @.str.3, ptr %src
  %m_impl.i = getelementptr inbounds i8, ptr %this, i64 8
  %0 = load ptr, ptr %m_impl.i, align 8
  %m_src = getelementptr inbounds i8, ptr %0, i64 8
  %call2 = tail call noundef nonnull align 8 dereferenceable(32) ptr @_ZNSt7__cxx1112basic_stringIcSt11char_traitsIcESaIcEEaSEPKc(ptr noundef nonnull align 8 dereferenceable(32) %m_src, ptr noundef nonnull %cond)
  ret void
}